Archive member included to satisfy reference by file (symbol)

/opt/wonderful/toolchain/gcc-arm-none-eabi/lib/gcc/arm-none-eabi/14.2.0/arm7tdmi/libgcc.a(_udivsi3.o)
                              /tmp/ccblHlbk.ltrans0.ltrans.o (__aeabi_uidivmod)
/opt/wonderful/toolchain/gcc-arm-none-eabi/lib/gcc/arm-none-eabi/14.2.0/arm7tdmi/libgcc.a(_dvmd_tls.o)
                              /opt/wonderful/toolchain/gcc-arm-none-eabi/lib/gcc/arm-none-eabi/14.2.0/arm7tdmi/libgcc.a(_udivsi3.o) (__aeabi_idiv0)

Discarded input sections

 .data          0x00000000        0x0 /tmp/ccblHlbk.ltrans0.ltrans.o
 .text          0x00000000        0x0 build/arm9/source/common/xor_constant.s.o
 .data          0x00000000        0x0 build/arm9/source/common/xor_constant.s.o
 .bss           0x00000000        0x0 build/arm9/source/common/xor_constant.s.o
 .text          0x00000000        0x0 build/arm9/source/common/libc/memcpy.s.o
 .data          0x00000000        0x0 build/arm9/source/common/libc/memcpy.s.o
 .bss           0x00000000        0x0 build/arm9/source/common/libc/memcpy.s.o
 .text.memcpy   0x00000000       0x10 build/arm9/source/common/libc/memcpy.s.o
 .text          0x00000000        0x0 build/arm9/source/common/libc/memmove.s.o
 .data          0x00000000        0x0 build/arm9/source/common/libc/memmove.s.o
 .bss           0x00000000        0x0 build/arm9/source/common/libc/memmove.s.o
 .text.memmove  0x00000000       0x10 build/arm9/source/common/libc/memmove.s.o
 .text          0x00000000        0x0 build/arm9/source/common/libc/memset.s.o
 .data          0x00000000        0x0 build/arm9/source/common/libc/memset.s.o
 .bss           0x00000000        0x0 build/arm9/source/common/libc/memset.s.o
 .text.__aeabi_memclr
                0x00000000       0x10 build/arm9/source/common/libc/memset.s.o
 .text.memset   0x00000000       0x1c build/arm9/source/common/libc/memset.s.o
 .text          0x00000000        0x0 build/arm9/source/common/libc/rmemcpy.s.o
 .data          0x00000000        0x0 build/arm9/source/common/libc/rmemcpy.s.o
 .bss           0x00000000        0x0 build/arm9/source/common/libc/rmemcpy.s.o
 .data          0x00000000        0x0 build/arm9/source/arm9/bootstub.s.o
 .bss           0x00000000        0x0 build/arm9/source/arm9/bootstub.s.o
 .text          0x00000000        0x0 build/arm9/source/arm9/crt0.s.o
 .data          0x00000000        0x0 build/arm9/source/arm9/crt0.s.o
 .bss           0x00000000        0x0 build/arm9/source/arm9/crt0.s.o
 .text          0x00000000        0x0 build/arm9/source/arm9/dldi_stub.s.o
 .data          0x00000000        0x0 build/arm9/source/arm9/dldi_stub.s.o
 .bss           0x00000000        0x0 build/arm9/source/arm9/dldi_stub.s.o
 .data          0x00000000        0x0 /opt/wonderful/toolchain/gcc-arm-none-eabi/lib/gcc/arm-none-eabi/14.2.0/arm7tdmi/libgcc.a(_udivsi3.o)
 .bss           0x00000000        0x0 /opt/wonderful/toolchain/gcc-arm-none-eabi/lib/gcc/arm-none-eabi/14.2.0/arm7tdmi/libgcc.a(_udivsi3.o)
 .data          0x00000000        0x0 /opt/wonderful/toolchain/gcc-arm-none-eabi/lib/gcc/arm-none-eabi/14.2.0/arm7tdmi/libgcc.a(_dvmd_tls.o)
 .bss           0x00000000        0x0 /opt/wonderful/toolchain/gcc-arm-none-eabi/lib/gcc/arm-none-eabi/14.2.0/arm7tdmi/libgcc.a(_dvmd_tls.o)

Memory Configuration

Name             Origin             Length             Attributes
ITCM             0x01000000         0x00008000
DTCM             0x0e000000         0x00004000
RAM              0x02000000         0x003c0000
*default*        0x00000000         0xffffffff

Linker script and memory map

LOAD build/arm9/source/arm9/default_font.bin.o
LOAD /tmp/ccblHlbk.ltrans0.ltrans.o
LOAD build/arm9/source/common/xor_constant.s.o
LOAD build/arm9/source/common/libc/memcpy.s.o
LOAD build/arm9/source/common/libc/memmove.s.o
LOAD build/arm9/source/common/libc/memset.s.o
LOAD build/arm9/source/common/libc/rmemcpy.s.o
LOAD build/arm9/source/arm9/bootstub.s.o
LOAD build/arm9/source/arm9/crt0.s.o
LOAD build/arm9/source/arm9/dldi_stub.s.o
LOAD build/arm9/source/common/libc/memcmp.c.o
LOAD build/arm9/source/common/libc/nanoprintf.c.o
LOAD build/arm9/source/common/libc/strchr.c.o
LOAD build/arm9/source/common/libc/strlen.c.o
LOAD build/arm9/source/arm9/console.c.o
LOAD build/arm9/source/arm9/dldi_patch.c.o
LOAD build/arm9/source/arm9/main.c.o
LOAD build/arm9/source/arm9/scsd/sc_commands.cpp.o
LOAD /opt/wonderful/toolchain/gcc-arm-none-eabi/lib/gcc/arm-none-eabi/14.2.0/arm7tdmi/libgcc.a
                0x00004000                        PROVIDE (__dldi_size = 0x4000)
                0x0000000e                        __dldi_log2_size = (LOG2CEIL ((__dldi_size + 0x1)) - 0x1)

.text           0x01000000     0x5c00 load address 0x02000000
 *(.start)
 .start         0x01000000      0x134 build/arm9/source/arm9/crt0.s.o
                0x01000000                _start
 *(.text .text.* .gnu.linkonce.t.*)
 .text          0x01000134      0x634 /tmp/ccblHlbk.ltrans0.ltrans.o
 .text.startup  0x01000768      0x964 /tmp/ccblHlbk.ltrans0.ltrans.o
                0x01000768                main
 .text.xor_constant
                0x010010cc        0x8 build/arm9/source/common/xor_constant.s.o
                0x010010cc                xor_constant
 .text.__aeabi_memcpy
                0x010010d4       0xdc build/arm9/source/common/libc/memcpy.s.o
                0x010010d4                __aeabi_memcpy
                0x0100110c                __aeabi_memcpy4
                0x0100110c                __aeabi_memcpy8
                0x01001178                __ndsabi_memcpy2
                0x0100119c                __ndsabi_memcpy1
 .text.__aeabi_memmove
                0x010011b0       0x24 build/arm9/source/common/libc/memmove.s.o
                0x010011b0                __aeabi_memmove
                0x010011bc                __aeabi_memmove8
                0x010011bc                __aeabi_memmove4
                0x010011c8                __ndsabi_memmove1
 .text.__aeabi_memset
                0x010011d4       0xac build/arm9/source/common/libc/memset.s.o
                0x010011d4                __aeabi_memset
                0x010011f8                __aeabi_memset8
                0x010011f8                __aeabi_memset4
                0x01001204                __ndsabi_wordset4
                0x01001208                __ndsabi_lwordset4
                0x01001270                __ndsabi_memset1
 .text.__ndsabi_rmemcpy
                0x01001280       0xe0 build/arm9/source/common/libc/rmemcpy.s.o
                0x01001280                __ndsabi_rmemcpy
                0x0100134c                __ndsabi_rmemcpy1
 .text          0x01001360       0x9c build/arm9/source/arm9/bootstub.s.o
                0x01001360                bootstub
                0x010013fc                bootstub_end
 .text          0x010013fc      0x114 /opt/wonderful/toolchain/gcc-arm-none-eabi/lib/gcc/arm-none-eabi/14.2.0/arm7tdmi/libgcc.a(_udivsi3.o)
                0x010013fc                __udivsi3
                0x010013fc                __aeabi_uidiv
                0x010014f0                __aeabi_uidivmod
 .text          0x01001510        0x4 /opt/wonderful/toolchain/gcc-arm-none-eabi/lib/gcc/arm-none-eabi/14.2.0/arm7tdmi/libgcc.a(_dvmd_tls.o)
                0x01001510                __aeabi_ldiv0
                0x01001510                __aeabi_idiv0
 *(.rodata .rodata.* .gnu.linkonce.r.*)
 .rodata.str1.1
                0x01001514      0x279 /tmp/ccblHlbk.ltrans0.ltrans.o
                                0x27f (size before relaxing)
 *fill*         0x0100178d        0x3 
 .rodata        0x01001790      0x320 /tmp/ccblHlbk.ltrans0.ltrans.o
 *(.data .data.* .gnu.linkonce.d.*)
                0x01001c00                        . = ALIGN (0x200)
 *fill*         0x01001ab0      0x150 
                0x01001c00                        __dldi_start = .
 *(.dldi .dldi.*)
 .dldi          0x01001c00       0x88 build/arm9/source/arm9/dldi_stub.s.o
                0x01001c00                _io_dldi_stub
                0x01005c00                        . = (__dldi_start + __dldi_size)
 *fill*         0x01001c88     0x3f78 
                0x01005c00                        . = ALIGN (0x200)

.glue_7         0x01005c00        0x0 load address 0x02005c00
 .glue_7        0x01005c00        0x0 linker stubs

.glue_7t        0x01005c00        0x0 load address 0x02005c00
 .glue_7t       0x01005c00        0x0 linker stubs

.vfp11_veneer   0x01005c00        0x0 load address 0x02005c00
 .vfp11_veneer  0x01005c00        0x0 linker stubs

.v4_bx          0x01005c00        0x0 load address 0x02005c00
 .v4_bx         0x01005c00        0x0 linker stubs

.iplt           0x01005c00        0x0 load address 0x02005c00
 .iplt          0x01005c00        0x0 build/arm9/source/common/xor_constant.s.o

.igot.plt       0x01005c00        0x0 load address 0x02005c00
 .igot.plt      0x01005c00        0x0 build/arm9/source/common/xor_constant.s.o

.rel.dyn        0x01005c00        0x0 load address 0x02005c00
 .rel.iplt      0x01005c00        0x0 build/arm9/source/common/xor_constant.s.o

.bss            0x0e000000       0x34 load address 0x02005c00
 *(.arguments)
 *(.bss .bss.* .gnu.linkonce.b.*)
 .bss           0x0e000000       0x34 /tmp/ccblHlbk.ltrans0.ltrans.o
 *(COMMON)
                0x0e000034                        . = ALIGN ((. != 0x0)?0x4:0x1)

.noinit         0x0e000034        0x0 load address 0x02005c00
 *(.noinit .noinit.* .gnu.linkonce.n.*)
                0x0e000034                        . = ALIGN ((. != 0x0)?0x4:0x1)
                0x01000000                        __itcm_start = ADDR (.text)
                0x000002e0                        __itcm_chunks = ((SIZEOF (.text) + 0x1f) >> 0x5)
                0x0e000000                        __bss_start = ADDR (.bss)
                0x00000004                        __bss_chunks = ((SIZEOF (.bss) + 0xf) >> 0x4)

.debug
 *(.debug)

.line
 *(.line)

.debug_srcinfo
 *(.debug_srcinfo)

.debug_sfnames
 *(.debug_sfnames)

.debug_aranges  0x00000000       0x40
 *(.debug_aranges)
 .debug_aranges
                0x00000000       0x20 /opt/wonderful/toolchain/gcc-arm-none-eabi/lib/gcc/arm-none-eabi/14.2.0/arm7tdmi/libgcc.a(_udivsi3.o)
 .debug_aranges
                0x00000020       0x20 /opt/wonderful/toolchain/gcc-arm-none-eabi/lib/gcc/arm-none-eabi/14.2.0/arm7tdmi/libgcc.a(_dvmd_tls.o)

.debug_pubnames
 *(.debug_pubnames)

.debug_info     0x00000000       0x7a
 *(.debug_info .gnu.linkonce.wi.*)
 .debug_info    0x00000000       0x3e /opt/wonderful/toolchain/gcc-arm-none-eabi/lib/gcc/arm-none-eabi/14.2.0/arm7tdmi/libgcc.a(_udivsi3.o)
 .debug_info    0x0000003e       0x3c /opt/wonderful/toolchain/gcc-arm-none-eabi/lib/gcc/arm-none-eabi/14.2.0/arm7tdmi/libgcc.a(_dvmd_tls.o)

.debug_abbrev   0x00000000       0x4e
 *(.debug_abbrev)
 .debug_abbrev  0x00000000       0x28 /opt/wonderful/toolchain/gcc-arm-none-eabi/lib/gcc/arm-none-eabi/14.2.0/arm7tdmi/libgcc.a(_udivsi3.o)
 .debug_abbrev  0x00000028       0x26 /opt/wonderful/toolchain/gcc-arm-none-eabi/lib/gcc/arm-none-eabi/14.2.0/arm7tdmi/libgcc.a(_dvmd_tls.o)

.debug_line     0x00000000       0xb1
 *(.debug_line .debug_line.* .debug_line_end)
 .debug_line    0x00000000       0x67 /opt/wonderful/toolchain/gcc-arm-none-eabi/lib/gcc/arm-none-eabi/14.2.0/arm7tdmi/libgcc.a(_udivsi3.o)
 .debug_line    0x00000067       0x4a /opt/wonderful/toolchain/gcc-arm-none-eabi/lib/gcc/arm-none-eabi/14.2.0/arm7tdmi/libgcc.a(_dvmd_tls.o)

.debug_frame    0x00000000       0x20
 *(.debug_frame)
 .debug_frame   0x00000000       0x20 /opt/wonderful/toolchain/gcc-arm-none-eabi/lib/gcc/arm-none-eabi/14.2.0/arm7tdmi/libgcc.a(_udivsi3.o)

.debug_str      0x00000000       0xd1
 *(.debug_str)
 .debug_str     0x00000000       0xd1 /opt/wonderful/toolchain/gcc-arm-none-eabi/lib/gcc/arm-none-eabi/14.2.0/arm7tdmi/libgcc.a(_udivsi3.o)
                                 0xb5 (size before relaxing)
 .debug_str     0x000000d1       0xb6 /opt/wonderful/toolchain/gcc-arm-none-eabi/lib/gcc/arm-none-eabi/14.2.0/arm7tdmi/libgcc.a(_dvmd_tls.o)

.comment        0x00000000       0x22
 .comment       0x00000000       0x22 /tmp/ccblHlbk.ltrans0.ltrans.o
                                 0x23 (size before relaxing)

.ARM.attributes
                0x00000000       0x26
 .ARM.attributes
                0x00000000       0x28 /tmp/ccblHlbk.ltrans0.ltrans.o
 .ARM.attributes
                0x00000028       0x1a build/arm9/source/common/xor_constant.s.o
 .ARM.attributes
                0x00000042       0x1a build/arm9/source/common/libc/memcpy.s.o
 .ARM.attributes
                0x0000005c       0x1a build/arm9/source/common/libc/memmove.s.o
 .ARM.attributes
                0x00000076       0x1a build/arm9/source/common/libc/memset.s.o
 .ARM.attributes
                0x00000090       0x1a build/arm9/source/common/libc/rmemcpy.s.o
 .ARM.attributes
                0x000000aa       0x20 build/arm9/source/arm9/bootstub.s.o
 .ARM.attributes
                0x000000ca       0x1a build/arm9/source/arm9/crt0.s.o
 .ARM.attributes
                0x000000e4       0x1a build/arm9/source/arm9/dldi_stub.s.o
 .ARM.attributes
                0x000000fe       0x1c /opt/wonderful/toolchain/gcc-arm-none-eabi/lib/gcc/arm-none-eabi/14.2.0/arm7tdmi/libgcc.a(_udivsi3.o)
 .ARM.attributes
                0x0000011a       0x1c /opt/wonderful/toolchain/gcc-arm-none-eabi/lib/gcc/arm-none-eabi/14.2.0/arm7tdmi/libgcc.a(_dvmd_tls.o)

.debug_loc
 *(.debug_loc)

.debug_macinfo
 *(.debug_macinfo)

.debug_weaknames
 *(.debug_weaknames)

.debug_funcnames
 *(.debug_funcnames)

.debug_typenames
 *(.debug_typenames)

.debug_varnames
 *(.debug_varnames)
OUTPUT(build/arm9.elf elf32-littlearm)
LOAD linker stubs

.debug_line_str
                0x00000000       0x8e
 .debug_line_str
                0x00000000       0x8e /opt/wonderful/toolchain/gcc-arm-none-eabi/lib/gcc/arm-none-eabi/14.2.0/arm7tdmi/libgcc.a(_udivsi3.o)
 .debug_line_str
                0x0000008e       0x8e /opt/wonderful/toolchain/gcc-arm-none-eabi/lib/gcc/arm-none-eabi/14.2.0/arm7tdmi/libgcc.a(_dvmd_tls.o)
